target datalayout = "e-m:e-p270:32:32-p271:32:32-p272:64:64-i64:64-i128:128-f80:128-n8:16:32:64-S128"
target triple = "x86_64-pc-linux-gnu"

%struct.hwloc_memory_page_type_s = type { i64, i64 }

; Function Attrs: nounwind uwtable
define internal i32 @hwloc_memory_page_type_compare(ptr noundef %0, ptr noundef %1) #0 {
  %3 = alloca i32, align 4
  %4 = alloca ptr, align 8
  %5 = alloca ptr, align 8
  %6 = alloca ptr, align 8
  %7 = alloca ptr, align 8
  %8 = alloca i32, align 4
  store ptr %0, ptr %4, align 8, !tbaa !167
  store ptr %1, ptr %5, align 8, !tbaa !167
  call void @llvm.lifetime.start.p0(i64 8, ptr %6) #14
  %9 = load ptr, ptr %4, align 8, !tbaa !167
  store ptr %9, ptr %6, align 8, !tbaa !272
  call void @llvm.lifetime.start.p0(i64 8, ptr %7) #14
  %10 = load ptr, ptr %5, align 8, !tbaa !167
  store ptr %10, ptr %7, align 8, !tbaa !272
  %11 = load ptr, ptr %7, align 8, !tbaa !272
  %12 = getelementptr inbounds nuw %struct.hwloc_memory_page_type_s, ptr %11, i32 0, i32 0
  %13 = load i64, ptr %12, align 8, !tbaa !229
  %14 = icmp ne i64 %13, 0
  br i1 %14, label %16, label %15

15:                                               ; preds = %2
  store i32 -1, ptr %3, align 4
  store i32 1, ptr %8, align 4
  br label %34

16:                                               ; preds = %2
  %17 = load ptr, ptr %7, align 8, !tbaa !272
  %18 = getelementptr inbounds nuw %struct.hwloc_memory_page_type_s, ptr %17, i32 0, i32 0
  %19 = load i64, ptr %18, align 8, !tbaa !229
  %20 = load ptr, ptr %6, align 8, !tbaa !272
  %21 = getelementptr inbounds nuw %struct.hwloc_memory_page_type_s, ptr %20, i32 0, i32 0
  %22 = load i64, ptr %21, align 8, !tbaa !229
  %23 = icmp eq i64 %19, %22
  br i1 %23, label %24, label %25

24:                                               ; preds = %16
  store i32 0, ptr %3, align 4
  store i32 1, ptr %8, align 4
  br label %34

25:                                               ; preds = %16
  %26 = load ptr, ptr %6, align 8, !tbaa !272
  %27 = getelementptr inbounds nuw %struct.hwloc_memory_page_type_s, ptr %26, i32 0, i32 0
  %28 = load i64, ptr %27, align 8, !tbaa !229
  %29 = load ptr, ptr %7, align 8, !tbaa !272
  %30 = getelementptr inbounds nuw %struct.hwloc_memory_page_type_s, ptr %29, i32 0, i32 0
  %31 = load i64, ptr %30, align 8, !tbaa !229
  %32 = icmp ult i64 %28, %31
  %33 = select i1 %32, i32 -1, i32 1
  store i32 %33, ptr %3, align 4
  store i32 1, ptr %8, align 4
  br label %34

34:                                               ; preds = %25, %24, %15
  call void @llvm.lifetime.end.p0(i64 8, ptr %7) #14
  call void @llvm.lifetime.end.p0(i64 8, ptr %6) #14
  %35 = load i32, ptr %3, align 4
  ret i32 %35
}