; Function Attrs: mustprogress nofree norecurse nosync nounwind willreturn memory(argmem: read) uwtable
define internal range(i32 -1, 2) i32 @hwloc_memory_page_type_compare(ptr noundef readonly captures(none) %0, ptr noundef readonly captures(none) %1) #1 {
  %3 = load i64, ptr %1, align 8, !tbaa !221
  %.not = icmp eq i64 %3, 0
  br i1 %.not, label %10, label %4

4:                                                ; preds = %2
  %5 = load i64, ptr %0, align 8, !tbaa !221
  %6 = icmp eq i64 %3, %5
  br i1 %6, label %10, label %7

7:                                                ; preds = %4
  %8 = icmp ult i64 %5, %3
  %9 = select i1 %8, i32 -1, i32 1
  br label %10

10:                                               ; preds = %4, %2, %7
  %.0 = phi i32 [ %9, %7 ], [ -1, %2 ], [ 0, %4 ]
  ret i32 %.0
}